; Function Attrs: nounwind uwtable
define noundef i32 @H5B__node_dest(ptr noundef %0) local_unnamed_addr #0 {
  %2 = load i8, ptr @H5B_init_g, align 1, !tbaa !3, !range !7, !noundef !8
  %3 = trunc nuw i8 %2 to i1
  %4 = load i8, ptr @H5_libterm_g, align 1, !range !7
  %5 = trunc nuw i8 %4 to i1
  %6 = xor i1 %5, true
  %7 = select i1 %3, i1 true, i1 %6
  br i1 %7, label %8, label %19, !prof !9

8:                                                ; preds = %1
  %9 = getelementptr inbounds nuw i8, ptr %0, i64 288
  %10 = load ptr, ptr %9, align 8, !tbaa !38
  %11 = tail call ptr @H5FL_seq_free(ptr noundef nonnull @H5_haddr_t_seq_free_list, ptr noundef %10) #6
  store ptr %11, ptr %9, align 8, !tbaa !38
  %12 = getelementptr inbounds nuw i8, ptr %0, i64 280
  %13 = load ptr, ptr %12, align 8, !tbaa !36
  %14 = tail call ptr @H5FL_blk_free(ptr noundef nonnull @H5_native_block_blk_free_list, ptr noundef %13) #6
  store ptr %14, ptr %12, align 8, !tbaa !36
  %15 = getelementptr inbounds nuw i8, ptr %0, i64 248
  %16 = load ptr, ptr %15, align 8, !tbaa !28
  %17 = tail call i32 @H5UC_decr(ptr noundef %16) #6
  %18 = tail call ptr @H5FL_reg_free(ptr noundef nonnull @H5_H5B_t_reg_free_list, ptr noundef %0) #6
  br label %19

19:                                               ; preds = %8, %1
  ret i32 0
}